target datalayout = "e-m:e-p270:32:32-p271:32:32-p272:64:64-i64:64-i128:128-f80:128-n8:16:32:64-S128"
target triple = "x86_64-pc-linux-gnu"

%struct.ImVec2 = type { float, float }
%struct.ExampleTreeNode = type { [28 x i8], i32, ptr, %struct.ImVector.13, i16, i8, i8, i32, %struct.ImVec2 }
%struct.ImVector.13 = type { i32, i32, ptr }

; Function Attrs: inlinehint mustprogress nounwind uwtable
define linkonce_odr void @_ZN8ImVectorIP15ExampleTreeNodeED2Ev(ptr noundef nonnull align 8 dereferenceable(16) %0) unnamed_addr #7 comdat align 2 personality ptr @__gxx_personality_v0 {
  %2 = alloca ptr, align 8
  store ptr %0, ptr %2, align 8, !tbaa !393
  %3 = load ptr, ptr %2, align 8
  %4 = getelementptr inbounds nuw %struct.ImVector.13, ptr %3, i32 0, i32 2
  %5 = load ptr, ptr %4, align 8, !tbaa !397
  %6 = icmp ne ptr %5, null
  br i1 %6, label %7, label %11

7:                                                ; preds = %1
  %8 = getelementptr inbounds nuw %struct.ImVector.13, ptr %3, i32 0, i32 2
  %9 = load ptr, ptr %8, align 8, !tbaa !397
  invoke void @_ZN5ImGui7MemFreeEPv(ptr noundef %9)
          to label %10 unwind label %12

10:                                               ; preds = %7
  br label %11

11:                                               ; preds = %10, %1
  ret void

12:                                               ; preds = %7
  %13 = landingpad { ptr, i32 }
          catch ptr null
  %14 = extractvalue { ptr, i32 } %13, 0
  call void @__clang_call_terminate(ptr %14) #18
  unreachable
}

; Function Attrs: inlinehint mustprogress nounwind uwtable
define linkonce_odr void @_ZN15ExampleTreeNodeD2Ev(ptr noundef nonnull align 8 dereferenceable(72) %0) unnamed_addr #7 comdat align 2 {
  %2 = alloca ptr, align 8
  store ptr %0, ptr %2, align 8, !tbaa !392
  %3 = load ptr, ptr %2, align 8
  %4 = getelementptr inbounds nuw %struct.ExampleTreeNode, ptr %3, i32 0, i32 3
  call void @_ZN8ImVectorIP15ExampleTreeNodeED2Ev(ptr noundef nonnull align 8 dereferenceable(16) %4) #2
  ret void
}

; Function Attrs: mustprogress uwtable
define linkonce_odr void @_Z9IM_DELETEI15ExampleTreeNodeEvPT_(ptr noundef %0) #0 comdat {
  %2 = alloca ptr, align 8
  store ptr %0, ptr %2, align 8, !tbaa !392
  %3 = load ptr, ptr %2, align 8, !tbaa !392
  %4 = icmp ne ptr %3, null
  br i1 %4, label %5, label %8

5:                                                ; preds = %1
  %6 = load ptr, ptr %2, align 8, !tbaa !392
  call void @_ZN15ExampleTreeNodeD2Ev(ptr noundef nonnull align 8 dereferenceable(72) %6) #2
  %7 = load ptr, ptr %2, align 8, !tbaa !392
  call void @_ZN5ImGui7MemFreeEPv(ptr noundef %7)
  br label %8

8:                                                ; preds = %5, %1
  ret void
}

; Function Attrs: inlinehint mustprogress nounwind uwtable
define linkonce_odr noundef ptr @_ZN8ImVectorIP15ExampleTreeNodeE3endEv(ptr noundef nonnull align 8 dereferenceable(16) %0) #7 comdat align 2 {
  %2 = alloca ptr, align 8
  store ptr %0, ptr %2, align 8, !tbaa !393
  %3 = load ptr, ptr %2, align 8
  %4 = getelementptr inbounds nuw %struct.ImVector.13, ptr %3, i32 0, i32 2
  %5 = load ptr, ptr %4, align 8, !tbaa !397
  %6 = getelementptr inbounds nuw %struct.ImVector.13, ptr %3, i32 0, i32 0
  %7 = load i32, ptr %6, align 8, !tbaa !399
  %8 = sext i32 %7 to i64
  %9 = getelementptr inbounds ptr, ptr %5, i64 %8
  ret ptr %9
}

; Function Attrs: inlinehint mustprogress nounwind uwtable
define linkonce_odr noundef ptr @_ZN8ImVectorIP15ExampleTreeNodeE5beginEv(ptr noundef nonnull align 8 dereferenceable(16) %0) #7 comdat align 2 {
  %2 = alloca ptr, align 8
  store ptr %0, ptr %2, align 8, !tbaa !393
  %3 = load ptr, ptr %2, align 8
  %4 = getelementptr inbounds nuw %struct.ImVector.13, ptr %3, i32 0, i32 2
  %5 = load ptr, ptr %4, align 8, !tbaa !397
  ret ptr %5
}

; Function Attrs: mustprogress uwtable
define internal void @_ZL23ExampleTree_DestroyNodeP15ExampleTreeNode(ptr noundef %0) #0 {
  %2 = alloca ptr, align 8
  %3 = alloca ptr, align 8
  %4 = alloca ptr, align 8
  %5 = alloca ptr, align 8
  %6 = alloca ptr, align 8
  store ptr %0, ptr %2, align 8, !tbaa !392
  call void @llvm.lifetime.start.p0(i64 8, ptr %3) #2
  %7 = load ptr, ptr %2, align 8, !tbaa !392
  %8 = getelementptr inbounds nuw %struct.ExampleTreeNode, ptr %7, i32 0, i32 3
  store ptr %8, ptr %3, align 8, !tbaa !393
  call void @llvm.lifetime.start.p0(i64 8, ptr %4) #2
  %9 = load ptr, ptr %3, align 8, !tbaa !393
  %10 = call noundef ptr @_ZN8ImVectorIP15ExampleTreeNodeE5beginEv(ptr noundef nonnull align 8 dereferenceable(16) %9)
  store ptr %10, ptr %4, align 8, !tbaa !395
  call void @llvm.lifetime.start.p0(i64 8, ptr %5) #2
  %11 = load ptr, ptr %3, align 8, !tbaa !393
  %12 = call noundef ptr @_ZN8ImVectorIP15ExampleTreeNodeE3endEv(ptr noundef nonnull align 8 dereferenceable(16) %11)
  store ptr %12, ptr %5, align 8, !tbaa !395
  br label %13

13:                                               ; preds = %22, %1
  %14 = load ptr, ptr %4, align 8, !tbaa !395
  %15 = load ptr, ptr %5, align 8, !tbaa !395
  %16 = icmp ne ptr %14, %15
  br i1 %16, label %18, label %17

17:                                               ; preds = %13
  call void @llvm.lifetime.end.p0(i64 8, ptr %5) #2
  call void @llvm.lifetime.end.p0(i64 8, ptr %4) #2
  call void @llvm.lifetime.end.p0(i64 8, ptr %3) #2
  br label %25

18:                                               ; preds = %13
  call void @llvm.lifetime.start.p0(i64 8, ptr %6) #2
  %19 = load ptr, ptr %4, align 8, !tbaa !395
  %20 = load ptr, ptr %19, align 8, !tbaa !392
  store ptr %20, ptr %6, align 8, !tbaa !392
  %21 = load ptr, ptr %6, align 8, !tbaa !392
  call void @_ZL23ExampleTree_DestroyNodeP15ExampleTreeNode(ptr noundef %21)
  call void @llvm.lifetime.end.p0(i64 8, ptr %6) #2
  br label %22

22:                                               ; preds = %18
  %23 = load ptr, ptr %4, align 8, !tbaa !395
  %24 = getelementptr inbounds nuw ptr, ptr %23, i32 1
  store ptr %24, ptr %4, align 8, !tbaa !395
  br label %13

25:                                               ; preds = %17
  %26 = load ptr, ptr %2, align 8, !tbaa !392
  call void @_Z9IM_DELETEI15ExampleTreeNodeEvPT_(ptr noundef %26)
  ret void
}