; Function Attrs: mustprogress uwtable
define internal fastcc void @_ZL23ExampleTree_DestroyNodeP15ExampleTreeNode(ptr noundef %0) unnamed_addr #4 personality ptr @__gxx_personality_v0 {
  %2 = getelementptr inbounds nuw i8, ptr %0, i64 40
  %3 = getelementptr inbounds nuw i8, ptr %0, i64 48
  %4 = load ptr, ptr %3, align 8, !tbaa !401
  %5 = load i32, ptr %2, align 8, !tbaa !404
  %6 = sext i32 %5 to i64
  %7 = getelementptr inbounds ptr, ptr %4, i64 %6
  %.not9 = icmp eq i32 %5, 0
  br i1 %.not9, label %._crit_edge, label %.lr.ph

._crit_edgethread-pre-split:                      ; preds = %.lr.ph
  %.pr = load ptr, ptr %3, align 8, !tbaa !401
  br label %._crit_edge

._crit_edge:                                      ; preds = %._crit_edgethread-pre-split, %1
  %8 = phi ptr [ %.pr, %._crit_edgethread-pre-split ], [ %4, %1 ]
  %.not.i.i.i = icmp eq ptr %8, null
  br i1 %.not.i.i.i, label %_Z9IM_DELETEI15ExampleTreeNodeEvPT_.exit, label %9

9:                                                ; preds = %._crit_edge
  invoke void @_ZN5ImGui7MemFreeEPv(ptr noundef nonnull %8)
          to label %_Z9IM_DELETEI15ExampleTreeNodeEvPT_.exit unwind label %10

10:                                               ; preds = %9
  %11 = landingpad { ptr, i32 }
          catch ptr null
  %12 = extractvalue { ptr, i32 } %11, 0
  tail call void @__clang_call_terminate(ptr %12) #34
  unreachable

_Z9IM_DELETEI15ExampleTreeNodeEvPT_.exit:         ; preds = %._crit_edge, %9
  tail call void @_ZN5ImGui7MemFreeEPv(ptr noundef nonnull %0)
  ret void

.lr.ph:                                           ; preds = %1, %.lr.ph
  %.010 = phi ptr [ %14, %.lr.ph ], [ %4, %1 ]
  %13 = load ptr, ptr %.010, align 8, !tbaa !405
  tail call fastcc void @_ZL23ExampleTree_DestroyNodeP15ExampleTreeNode(ptr noundef %13)
  %14 = getelementptr inbounds nuw i8, ptr %.010, i64 8
  %.not = icmp eq ptr %14, %7
  br i1 %.not, label %._crit_edgethread-pre-split, label %.lr.ph
}